target datalayout = "e-m:e-p270:32:32-p271:32:32-p272:64:64-i64:64-i128:128-f80:128-n8:16:32:64-S128"
target triple = "x86_64-pc-linux-gnu"

@stderr = external global ptr, align 8
@.str.5 = private unnamed_addr constant [48 x i8] c"usage: %s compress [switches] outputfile[.jpg]\0A\00", align 1
@.str.6 = private unnamed_addr constant [55 x i8] c"       %s decompress inputfile[.jpg] outputfile[.ppm]\0A\00", align 1
@.str.7 = private unnamed_addr constant [38 x i8] c"Switches (names may be abbreviated):\0A\00", align 1
@.str.8 = private unnamed_addr constant [61 x i8] c"  -precision N   Create JPEG file with N-bit data precision\0A\00", align 1
@.str.9 = private unnamed_addr constant [47 x i8] c"                 (N is 8 or 12; default is 8)\0A\00", align 1
@.str.10 = private unnamed_addr constant [74 x i8] c"  -quality N     Compression quality (0..100; 5-95 is most useful range,\0A\00", align 1
@.str.11 = private unnamed_addr constant [33 x i8] c"                 default is 75)\0A\00", align 1

; Function Attrs: nounwind uwtable
define internal void @usage(ptr noundef %0) #0 {
  %2 = alloca ptr, align 8
  store ptr %0, ptr %2, align 8, !tbaa !11
  %3 = load ptr, ptr @stderr, align 8, !tbaa !16
  %4 = load ptr, ptr %2, align 8, !tbaa !11
  %5 = call i32 (ptr, ptr, ...) @fprintf(ptr noundef %3, ptr noundef @.str.5, ptr noundef %4) #7
  %6 = load ptr, ptr @stderr, align 8, !tbaa !16
  %7 = load ptr, ptr %2, align 8, !tbaa !11
  %8 = call i32 (ptr, ptr, ...) @fprintf(ptr noundef %6, ptr noundef @.str.6, ptr noundef %7) #7
  %9 = load ptr, ptr @stderr, align 8, !tbaa !16
  %10 = call i32 (ptr, ptr, ...) @fprintf(ptr noundef %9, ptr noundef @.str.7) #7
  %11 = load ptr, ptr @stderr, align 8, !tbaa !16
  %12 = call i32 (ptr, ptr, ...) @fprintf(ptr noundef %11, ptr noundef @.str.8) #7
  %13 = load ptr, ptr @stderr, align 8, !tbaa !16
  %14 = call i32 (ptr, ptr, ...) @fprintf(ptr noundef %13, ptr noundef @.str.9) #7
  %15 = load ptr, ptr @stderr, align 8, !tbaa !16
  %16 = call i32 (ptr, ptr, ...) @fprintf(ptr noundef %15, ptr noundef @.str.10) #7
  %17 = load ptr, ptr @stderr, align 8, !tbaa !16
  %18 = call i32 (ptr, ptr, ...) @fprintf(ptr noundef %17, ptr noundef @.str.11) #7
  call void @exit(i32 noundef 1) #9
  unreachable
}