; Function Attrs: cold nofree noreturn nounwind uwtable
define internal fastcc void @usage(ptr noundef %0) unnamed_addr #2 {
  %2 = load ptr, ptr @stderr, align 8, !tbaa !58
  %3 = tail call i32 (ptr, ptr, ...) @fprintf(ptr noundef %2, ptr noundef nonnull @.str.5, ptr noundef %0) #13
  %4 = load ptr, ptr @stderr, align 8, !tbaa !58
  %5 = tail call i32 (ptr, ptr, ...) @fprintf(ptr noundef %4, ptr noundef nonnull @.str.6, ptr noundef %0) #13
  %6 = load ptr, ptr @stderr, align 8, !tbaa !58
  %7 = tail call i64 @fwrite(ptr nonnull @.str.7, i64 37, i64 1, ptr %6) #14
  %8 = load ptr, ptr @stderr, align 8, !tbaa !58
  %9 = tail call i64 @fwrite(ptr nonnull @.str.8, i64 60, i64 1, ptr %8) #14
  %10 = load ptr, ptr @stderr, align 8, !tbaa !58
  %11 = tail call i64 @fwrite(ptr nonnull @.str.9, i64 46, i64 1, ptr %10) #14
  %12 = load ptr, ptr @stderr, align 8, !tbaa !58
  %13 = tail call i64 @fwrite(ptr nonnull @.str.10, i64 73, i64 1, ptr %12) #14
  %14 = load ptr, ptr @stderr, align 8, !tbaa !58
  %15 = tail call i64 @fwrite(ptr nonnull @.str.11, i64 32, i64 1, ptr %14) #14
  tail call void @exit(i32 noundef 1) #15
  unreachable
}